target datalayout = "e-m:e-p270:32:32-p271:32:32-p272:64:64-i64:64-i128:128-f80:128-n8:16:32:64-S128"
target triple = "x86_64-pc-linux-gnu"

%struct.prov_drbg_st = type { ptr, ptr, ptr, ptr, ptr, ptr, ptr, ptr, ptr, ptr, ptr, ptr, ptr, ptr, i32, i16, i32, i64, i64, i64, i64, i64, i64, i64, i32, i32, i64, i64, i32, i32, i32, i64, i32, ptr, ptr, ptr, ptr, ptr, ptr }
%struct.rand_drbg_ctr_st = type { ptr, ptr, ptr, ptr, ptr, i64, i32, [32 x i8], [16 x i8], [16 x i8], i64, [48 x i8] }

; Function Attrs: nounwind uwtable
define internal void @inc_128(ptr noundef %0) #0 {
  %2 = alloca ptr, align 8
  %3 = alloca ptr, align 8
  %4 = alloca i32, align 4
  %5 = alloca i32, align 4
  store ptr %0, ptr %2, align 8, !tbaa !17
  call void @llvm.lifetime.start.p0(i64 8, ptr %3) #6
  %6 = load ptr, ptr %2, align 8, !tbaa !17
  %7 = getelementptr inbounds nuw %struct.rand_drbg_ctr_st, ptr %6, i32 0, i32 8
  %8 = getelementptr inbounds [16 x i8], ptr %7, i64 0, i64 0
  store ptr %8, ptr %3, align 8, !tbaa !28
  call void @llvm.lifetime.start.p0(i64 4, ptr %4) #6
  store i32 16, ptr %4, align 4, !tbaa !27
  call void @llvm.lifetime.start.p0(i64 4, ptr %5) #6
  store i32 1, ptr %5, align 4, !tbaa !27
  br label %9

9:                                                ; preds = %28, %1
  %10 = load i32, ptr %4, align 4, !tbaa !27
  %11 = add i32 %10, -1
  store i32 %11, ptr %4, align 4, !tbaa !27
  %12 = load ptr, ptr %3, align 8, !tbaa !28
  %13 = load i32, ptr %4, align 4, !tbaa !27
  %14 = zext i32 %13 to i64
  %15 = getelementptr inbounds nuw i8, ptr %12, i64 %14
  %16 = load i8, ptr %15, align 1, !tbaa !35
  %17 = zext i8 %16 to i32
  %18 = load i32, ptr %5, align 4, !tbaa !27
  %19 = add i32 %18, %17
  store i32 %19, ptr %5, align 4, !tbaa !27
  %20 = load i32, ptr %5, align 4, !tbaa !27
  %21 = trunc i32 %20 to i8
  %22 = load ptr, ptr %3, align 8, !tbaa !28
  %23 = load i32, ptr %4, align 4, !tbaa !27
  %24 = zext i32 %23 to i64
  %25 = getelementptr inbounds nuw i8, ptr %22, i64 %24
  store i8 %21, ptr %25, align 1, !tbaa !35
  %26 = load i32, ptr %5, align 4, !tbaa !27
  %27 = lshr i32 %26, 8
  store i32 %27, ptr %5, align 4, !tbaa !27
  br label %28

28:                                               ; preds = %9
  %29 = load i32, ptr %4, align 4, !tbaa !27
  %30 = icmp ne i32 %29, 0
  br i1 %30, label %9, label %31, !llvm.loop !54

31:                                               ; preds = %28
  call void @llvm.lifetime.end.p0(i64 4, ptr %5) #6
  call void @llvm.lifetime.end.p0(i64 4, ptr %4) #6
  call void @llvm.lifetime.end.p0(i64 8, ptr %3) #6
  ret void
}

; Function Attrs: nounwind uwtable
define internal i32 @drbg_ctr_instantiate(ptr noundef %0, ptr noundef %1, i64 noundef %2, ptr noundef %3, i64 noundef %4, ptr noundef %5, i64 noundef %6) #0 {
  %8 = alloca i32, align 4
  %9 = alloca ptr, align 8
  %10 = alloca ptr, align 8
  %11 = alloca i64, align 8
  %12 = alloca ptr, align 8
  %13 = alloca i64, align 8
  %14 = alloca ptr, align 8
  %15 = alloca i64, align 8
  %16 = alloca ptr, align 8
  %17 = alloca i32, align 4
  store ptr %0, ptr %9, align 8, !tbaa !9
  store ptr %1, ptr %10, align 8, !tbaa !28
  store i64 %2, ptr %11, align 8, !tbaa !30
  store ptr %3, ptr %12, align 8, !tbaa !28
  store i64 %4, ptr %13, align 8, !tbaa !30
  store ptr %5, ptr %14, align 8, !tbaa !28
  store i64 %6, ptr %15, align 8, !tbaa !30
  call void @llvm.lifetime.start.p0(i64 8, ptr %16) #6
  %18 = load ptr, ptr %9, align 8, !tbaa !9
  %19 = getelementptr inbounds nuw %struct.prov_drbg_st, ptr %18, i32 0, i32 33
  %20 = load ptr, ptr %19, align 8, !tbaa !11
  store ptr %20, ptr %16, align 8, !tbaa !17
  %21 = load ptr, ptr %10, align 8, !tbaa !28
  %22 = icmp eq ptr %21, null
  br i1 %22, label %23, label %24

23:                                               ; preds = %7
  store i32 0, ptr %8, align 4
  store i32 1, ptr %17, align 4
  br label %53

24:                                               ; preds = %7
  %25 = load ptr, ptr %16, align 8, !tbaa !17
  %26 = getelementptr inbounds nuw %struct.rand_drbg_ctr_st, ptr %25, i32 0, i32 7
  %27 = getelementptr inbounds [32 x i8], ptr %26, i64 0, i64 0
  call void @llvm.memset.p0.i64(ptr align 4 %27, i8 0, i64 32, i1 false)
  %28 = load ptr, ptr %16, align 8, !tbaa !17
  %29 = getelementptr inbounds nuw %struct.rand_drbg_ctr_st, ptr %28, i32 0, i32 8
  %30 = getelementptr inbounds [16 x i8], ptr %29, i64 0, i64 0
  call void @llvm.memset.p0.i64(ptr align 4 %30, i8 0, i64 16, i1 false)
  %31 = load ptr, ptr %16, align 8, !tbaa !17
  %32 = getelementptr inbounds nuw %struct.rand_drbg_ctr_st, ptr %31, i32 0, i32 0
  %33 = load ptr, ptr %32, align 8, !tbaa !19
  %34 = load ptr, ptr %16, align 8, !tbaa !17
  %35 = getelementptr inbounds nuw %struct.rand_drbg_ctr_st, ptr %34, i32 0, i32 7
  %36 = getelementptr inbounds [32 x i8], ptr %35, i64 0, i64 0
  %37 = call i32 @EVP_CipherInit_ex(ptr noundef %33, ptr noundef null, ptr noundef null, ptr noundef %36, ptr noundef null, i32 noundef -1)
  %38 = icmp ne i32 %37, 0
  br i1 %38, label %40, label %39

39:                                               ; preds = %24
  store i32 0, ptr %8, align 4
  store i32 1, ptr %17, align 4
  br label %53

40:                                               ; preds = %24
  %41 = load ptr, ptr %16, align 8, !tbaa !17
  call void @inc_128(ptr noundef %41)
  %42 = load ptr, ptr %9, align 8, !tbaa !9
  %43 = load ptr, ptr %10, align 8, !tbaa !28
  %44 = load i64, ptr %11, align 8, !tbaa !30
  %45 = load ptr, ptr %14, align 8, !tbaa !28
  %46 = load i64, ptr %15, align 8, !tbaa !30
  %47 = load ptr, ptr %12, align 8, !tbaa !28
  %48 = load i64, ptr %13, align 8, !tbaa !30
  %49 = call i32 @ctr_update(ptr noundef %42, ptr noundef %43, i64 noundef %44, ptr noundef %45, i64 noundef %46, ptr noundef %47, i64 noundef %48)
  %50 = icmp ne i32 %49, 0
  br i1 %50, label %52, label %51

51:                                               ; preds = %40
  store i32 0, ptr %8, align 4
  store i32 1, ptr %17, align 4
  br label %53

52:                                               ; preds = %40
  store i32 1, ptr %8, align 4
  store i32 1, ptr %17, align 4
  br label %53

53:                                               ; preds = %52, %51, %39, %23
  call void @llvm.lifetime.end.p0(i64 8, ptr %16) #6
  %54 = load i32, ptr %8, align 4
  ret i32 %54
}