; Function Attrs: nounwind uwtable
define internal range(i32 0, 2) i32 @drbg_ctr_instantiate(ptr noundef readonly captures(none) %0, ptr noundef captures(address_is_null) %1, i64 noundef %2, ptr noundef captures(address_is_null) %3, i64 noundef %4, ptr noundef captures(address_is_null) %5, i64 noundef %6) #0 {
  %8 = icmp eq ptr %1, null
  br i1 %8, label %23, label %9

9:                                                ; preds = %7
  %10 = getelementptr inbounds nuw i8, ptr %0, i64 240
  %11 = load ptr, ptr %10, align 8, !tbaa !3
  %12 = getelementptr inbounds nuw i8, ptr %11, i64 52
  %13 = getelementptr inbounds nuw i8, ptr %11, i64 84
  tail call void @llvm.memset.p0.i64(ptr noundef nonnull align 4 dereferenceable(48) %12, i8 0, i64 48, i1 false)
  %14 = load ptr, ptr %11, align 8, !tbaa !12
  %15 = tail call i32 @EVP_CipherInit_ex(ptr noundef %14, ptr noundef null, ptr noundef null, ptr noundef nonnull %12, ptr noundef null, i32 noundef -1) #7
  %.not = icmp eq i32 %15, 0
  br i1 %.not, label %23, label %.preheader

.preheader:                                       ; preds = %9, %.preheader
  %indvars.iv.i = phi i64 [ %indvars.iv.next.i, %.preheader ], [ 16, %9 ]
  %.0.i = phi i32 [ %21, %.preheader ], [ 1, %9 ]
  %indvars.iv.next.i = add nsw i64 %indvars.iv.i, -1
  %16 = getelementptr inbounds nuw i8, ptr %13, i64 %indvars.iv.next.i
  %17 = load i8, ptr %16, align 1, !tbaa !26
  %18 = zext i8 %17 to i32
  %19 = add nuw nsw i32 %.0.i, %18
  %20 = trunc i32 %19 to i8
  store i8 %20, ptr %16, align 1, !tbaa !26
  %21 = lshr i32 %19, 8
  %.not.i = icmp eq i64 %indvars.iv.next.i, 0
  br i1 %.not.i, label %inc_128.exit, label %.preheader, !llvm.loop !38

inc_128.exit:                                     ; preds = %.preheader
  %22 = tail call fastcc i32 @ctr_update(ptr noundef %0, ptr noundef nonnull %1, i64 noundef %2, ptr noundef %5, i64 noundef %6, ptr noundef %3, i64 noundef %4)
  br label %23

23:                                               ; preds = %inc_128.exit, %9, %7
  %.0 = phi i32 [ 0, %7 ], [ 0, %9 ], [ %22, %inc_128.exit ]
  ret i32 %.0
}